(lp0
I2772955291
aI473209515
aI2432873714
aI1945326643
aI1603266774
aI2396449603
aI3033523995
aI197762011
aI443310073
aI103818920
aI2385493998
aI905961144
aI928060658
aI1694828388
aI2936620252
aI2427991380
aI42558748
aI2885132031
aI2846669421
aI2186664129
aI2869832452
aI2855690463
aI457438511
aI1861122428
aI2831386757
aI2729987508
aI2809926429
aI381581517
aI408681239
aI2811811681
aI487742945
aI2805861505
aI2797911774
aI222085914
aI1353041484
aI2419889622
aI135181507
aI2740762283
aI62116239
aI49803787
aI39566982
aI112298945
aI2608008769
aI2591492444
aI155398979
aI2390634875
aI163214998
aI264104609
aI964765328
aI2469333356
aI2437067868
aI2420338885
aI1701575010
aI285100307
aI414870759
aI2294342665
aI270831649
aI1149553872
aI468895940
aI2401820017
aI39452491
aI217873445
aI2221928738
aI2393558569
aI958214480
aI312404227
aI167808788
aI1442295570
aI303038856
aI391505814
aI720793136
aI2149195578
aI2362913333
aI486153741
aI44071161
aI391620656
aI2340671054
aI329049035
aI2237606310
aI378827574
aI2329101884
aI120095490
aI94246622
aI2155620913
aI848094110
aI1198018724
aI14375294
aI2227078189
aI1218195745
aI401880945
aI401899444
aI2229444914
aI599610458
aI2187233760
aI2207648372
aI2255475822
aI1899986970
aI417519121
aI495189410
aI149601147
aI74866601
aI160190416
aI196507084
aI1304922193
aI1564288981
aI958048927
aI461229409
aI199441372
aI57904811
aI49782202
aI977112482
aI518903493
aI491360879
aI298012970
aI1704318750
aI1192814250
aI106204369
aI55268837
aI347552710
aI343608721
aI385981640
aI210938627
aI279907517
aI1726422218
aI623812786
aI140732156
aI386013862
aI416666598
aI1712218170
aI1420658598
aI1224275485
aI610844242
aI1530920305
aI194550905
aI1633213448
aI1221691729
aI481514714
aI1423787736
aI1056028682
aI381112815
aI1578566642
aI190050765
aI56126959
aI1229805440
aI267296009
aI1451754932
aI24245131
aI785180046
aI433478158
aI76894317
aI153146328
aI579274119
aI252051454
aI100046574
aI378840472
aI1016369264
aI868653205
aI619303519
aI1244092904
aI888499807
aI455687524
aI746890908
aI1099121671
aI1254064472
aI278133536
aI1140287918
aI304399163
aI281419238
aI1075079270
aI176944772
aI1002703970
aI811591688
aI1200351066
aI446727169
aI728328121
aI631148877
aI1115181036
aI1060751394
aI606426377
aI307362459
aI457559125
aI404073537
aI405714936
aI623702597
aI389395321
aI535402226
aI724186104
aI286788383
aI1099268864
aI906280194
aI1092873884
aI196203685
aI1090173385
aI280673814
aI611986351
aI266195082
aI1053811446
aI506655680
aI617000287
aI478119461
aI291064731
aI80351180
aI904401012
aI986889440
aI458687899
aI16956082
aI105158410
aI190694350
aI433713583
aI336984318
aI729398642
aI757534483
aI60488034
aI228424855
aI933273829
aI921933884
aI98842357
aI420160456
aI820577366
aI883029510
aI570362348
aI135662429
aI397475218
aI570382645
aI498102209
aI250329448
aI15866678
aI384870710
aI232440267
aI785638411
aI7642292
aI771808555
aI526468060
aI8307022
aI18337772
aI217191269
aI17427024
aI743856102
aI298139045
aI740231802
aI169009504
aI718548252
aI703310221
aI632955933
aI308483280
aI619970468
aI437545571
aI47137212
aI569944211
aI303229292
aI295295459
aI587363505
aI184841434
aI318048475
aI597671166
aI15379794
aI570289422
aI294053877
aI581696984
aI563799522
aI15168355
aI147494963
aI26283471
aI299717927
aI310504062
aI9330222
aI6305462
aI425926328
aI386735711
aI558005276
aI111049605
aI150696346
aI221736865
aI63673657
aI123697026
aI483679853
aI139463927
aI30046240
aI88400846
aI46355141
aI268350936
aI531454430
aI525500449
aI119463807
aI261364451
aI208463188
aI128276716
aI51924946
aI248398612
aI454404920
aI22133054
aI487932468
aI235201302
aI167149691
aI121401745
aI320201964
aI237276177
aI28130604
aI191370849
aI274988238
aI496079315
aI422617423
aI389086312
aI445520968
aI259713560
aI239733754
aI494387117
aI90897072
aI364704065
aI315684396
aI294007649
aI74090541
aI337954095
aI484308752
aI381048040
aI481273726
aI66223468
aI248158066
aI479829330
aI59180294
aI412950790
aI56188005
aI121728449
aI471557150
aI278393580
aI26052727
aI467833898
aI263338103
aI141076190
aI93815231
aI6678852
aI52342261
aI352038285
aI163157076
aI298214718
aI226622988
aI361962653
aI14411771
aI158011652
aI1620841
aI390283640
aI150291633
aI21292047
aI249728922
aI141555675
aI251068877
aI125782060
aI421273995
aI350484857
aI105432943
aI294231312
aI14030152
aI337717314
aI382079465
aI23143681
aI270576782
aI421069679
aI43206370
aI270860331
aI118812947
aI264779451
aI430536012
aI271614970
aI122218109
aI132460471
aI50429898
aI425292373
aI224750181
aI281000979
aI32540994
aI168928224
aI396983711
aI118463117
aI405216421
aI223185906
aI308179225
aI261648544
aI396643634
aI355170544
aI312921161
aI290984553
aI371854607
aI309245575
aI364983434
aI360745920
aI299146323
aI217345877
aI86162337
aI231092652
aI239515201
aI271451495
aI221810780
aI123355244
aI29529505
aI98710947
aI252731110
aI95954481
aI292345790
aI297579630
aI282174401
aI307893310
aI247000615
aI301685997
aI51401358
aI94297983
aI300212237
aI299595933
aI234781228
aI288851684
aI137412207
aI262088879
aI93939208
aI97419333
aI259868213
aI92079050
aI164773352
aI146421638
aI8548312
aI192325179
aI42378039
aI277057900
aI242689584
aI73143996
aI72600081
aI81207279
aI285044780
aI113615823
aI123041223
aI47158160
aI99969405
aI113644790
aI227094643
aI223784366
aI259273362
aI17186899
aI252847759
aI16183178
aI244391091
aI15630593
aI141259633
aI25272008
aI202791115
aI49916390
aI211628145
aI71498154
aI195591080
aI240988440
aI234920901
aI76225604
aI106559482
aI53511304
aI15736656
aI227509924
aI95215608
aI222559417
aI197350974
aI174714610
aI72241577
aI21453008
aI101166742
aI98592190
aI190901650
aI96314801
aI789188
aI17093617
aI190058109
aI188110282
a.